target datalayout = "e-m:e-p270:32:32-p271:32:32-p272:64:64-i64:64-i128:128-f80:128-n8:16:32:64-S128"
target triple = "x86_64-pc-linux-gnu"

@.str.14 = private unnamed_addr constant [34 x i8] c"../openssl/test/x509_acert_test.c\00", align 1
@.str.21 = private unnamed_addr constant [35 x i8] c"bp = BIO_new_file(acert_file, \22r\22)\00", align 1
@.str.22 = private unnamed_addr constant [2 x i8] c"r\00", align 1
@.str.24 = private unnamed_addr constant [54 x i8] c"acert = PEM_read_bio_X509_ACERT(bp, NULL, NULL, NULL)\00", align 1
@.str.26 = private unnamed_addr constant [2 x i8] c"1\00", align 1
@.str.27 = private unnamed_addr constant [34 x i8] c"acert_file = test_get_argument(0)\00", align 1
@.str.28 = private unnamed_addr constant [25 x i8] c"pkey = EVP_RSA_gen(2048)\00", align 1
@.str.29 = private unnamed_addr constant [4 x i8] c"RSA\00", align 1
@.str.30 = private unnamed_addr constant [43 x i8] c"X509_ACERT_sign(acert, pkey, EVP_sha256())\00", align 1
@.str.31 = private unnamed_addr constant [2 x i8] c"0\00", align 1
@.str.32 = private unnamed_addr constant [31 x i8] c"X509_ACERT_verify(acert, pkey)\00", align 1

; Function Attrs: nounwind uwtable
define internal i32 @test_acert_sign() #0 {
  %1 = alloca i32, align 4
  %2 = alloca i32, align 4
  %3 = alloca ptr, align 8
  %4 = alloca ptr, align 8
  %5 = alloca ptr, align 8
  %6 = alloca ptr, align 8
  %7 = alloca i32, align 4
  call void @llvm.lifetime.start.p0(i64 4, ptr %2) #3
  store i32 0, ptr %2, align 4, !tbaa !4
  call void @llvm.lifetime.start.p0(i64 8, ptr %3) #3
  call void @llvm.lifetime.start.p0(i64 8, ptr %4) #3
  call void @llvm.lifetime.start.p0(i64 8, ptr %5) #3
  store ptr null, ptr %5, align 8, !tbaa !13
  call void @llvm.lifetime.start.p0(i64 8, ptr %6) #3
  store ptr null, ptr %6, align 8, !tbaa !8
  %8 = call ptr @test_get_argument(i64 noundef 0)
  store ptr %8, ptr %3, align 8, !tbaa !11
  %9 = call i32 @test_ptr(ptr noundef @.str.14, i32 noundef 56, ptr noundef @.str.27, ptr noundef %8)
  %10 = icmp ne i32 %9, 0
  br i1 %10, label %12, label %11

11:                                               ; preds = %0
  store i32 0, ptr %1, align 4
  store i32 1, ptr %7, align 4
  br label %50

12:                                               ; preds = %0
  %13 = call ptr (ptr, ptr, ptr, ...) @EVP_PKEY_Q_keygen(ptr noundef null, ptr noundef null, ptr noundef @.str.29, i64 noundef 2048)
  store ptr %13, ptr %4, align 8, !tbaa !17
  %14 = call i32 @test_ptr(ptr noundef @.str.14, i32 noundef 59, ptr noundef @.str.28, ptr noundef %13)
  %15 = icmp ne i32 %14, 0
  br i1 %15, label %17, label %16

16:                                               ; preds = %12
  store i32 0, ptr %1, align 4
  store i32 1, ptr %7, align 4
  br label %50

17:                                               ; preds = %12
  %18 = load ptr, ptr %3, align 8, !tbaa !11
  %19 = call ptr @BIO_new_file(ptr noundef %18, ptr noundef @.str.22)
  store ptr %19, ptr %5, align 8, !tbaa !13
  %20 = call i32 @test_ptr(ptr noundef @.str.14, i32 noundef 62, ptr noundef @.str.21, ptr noundef %19)
  %21 = icmp ne i32 %20, 0
  br i1 %21, label %23, label %22

22:                                               ; preds = %17
  br label %44

23:                                               ; preds = %17
  %24 = load ptr, ptr %5, align 8, !tbaa !13
  %25 = call ptr @PEM_read_bio_X509_ACERT(ptr noundef %24, ptr noundef null, ptr noundef null, ptr noundef null)
  store ptr %25, ptr %6, align 8, !tbaa !8
  %26 = call i32 @test_ptr(ptr noundef @.str.14, i32 noundef 65, ptr noundef @.str.24, ptr noundef %25)
  %27 = icmp ne i32 %26, 0
  br i1 %27, label %29, label %28

28:                                               ; preds = %23
  br label %44

29:                                               ; preds = %23
  %30 = load ptr, ptr %6, align 8, !tbaa !8
  %31 = load ptr, ptr %4, align 8, !tbaa !17
  %32 = call ptr @EVP_sha256()
  %33 = call i32 @X509_ACERT_sign(ptr noundef %30, ptr noundef %31, ptr noundef %32)
  %34 = call i32 @test_int_gt(ptr noundef @.str.14, i32 noundef 68, ptr noundef @.str.30, ptr noundef @.str.31, i32 noundef %33, i32 noundef 0)
  %35 = icmp ne i32 %34, 0
  br i1 %35, label %36, label %42

36:                                               ; preds = %29
  %37 = load ptr, ptr %6, align 8, !tbaa !8
  %38 = load ptr, ptr %4, align 8, !tbaa !17
  %39 = call i32 @X509_ACERT_verify(ptr noundef %37, ptr noundef %38)
  %40 = call i32 @test_int_eq(ptr noundef @.str.14, i32 noundef 69, ptr noundef @.str.32, ptr noundef @.str.26, i32 noundef %39, i32 noundef 1)
  %41 = icmp ne i32 %40, 0
  br i1 %41, label %43, label %42

42:                                               ; preds = %36, %29
  br label %44

43:                                               ; preds = %36
  store i32 1, ptr %2, align 4, !tbaa !4
  br label %44

44:                                               ; preds = %43, %42, %28, %22
  %45 = load ptr, ptr %5, align 8, !tbaa !13
  %46 = call i32 @BIO_free(ptr noundef %45)
  %47 = load ptr, ptr %6, align 8, !tbaa !8
  call void @X509_ACERT_free(ptr noundef %47)
  %48 = load ptr, ptr %4, align 8, !tbaa !17
  call void @EVP_PKEY_free(ptr noundef %48)
  %49 = load i32, ptr %2, align 4, !tbaa !4
  store i32 %49, ptr %1, align 4
  store i32 1, ptr %7, align 4
  br label %50

50:                                               ; preds = %44, %16, %11
  call void @llvm.lifetime.end.p0(i64 8, ptr %6) #3
  call void @llvm.lifetime.end.p0(i64 8, ptr %5) #3
  call void @llvm.lifetime.end.p0(i64 8, ptr %4) #3
  call void @llvm.lifetime.end.p0(i64 8, ptr %3) #3
  call void @llvm.lifetime.end.p0(i64 4, ptr %2) #3
  %51 = load i32, ptr %1, align 4
  ret i32 %51
}