; Function Attrs: nounwind uwtable
define internal range(i32 0, 2) i32 @test_acert_sign() #1 {
  %1 = tail call ptr @test_get_argument(i64 noundef 0) #4
  %2 = tail call i32 @test_ptr(ptr noundef nonnull @.str.14, i32 noundef 56, ptr noundef nonnull @.str.27, ptr noundef %1) #4
  %.not = icmp eq i32 %2, 0
  br i1 %.not, label %21, label %3

3:                                                ; preds = %0
  %4 = tail call ptr (ptr, ptr, ptr, ...) @EVP_PKEY_Q_keygen(ptr noundef null, ptr noundef null, ptr noundef nonnull @.str.29, i64 noundef 2048) #4
  %5 = tail call i32 @test_ptr(ptr noundef nonnull @.str.14, i32 noundef 59, ptr noundef nonnull @.str.28, ptr noundef %4) #4
  %.not12 = icmp eq i32 %5, 0
  br i1 %.not12, label %21, label %6

6:                                                ; preds = %3
  %7 = tail call ptr @BIO_new_file(ptr noundef %1, ptr noundef nonnull @.str.22) #4
  %8 = tail call i32 @test_ptr(ptr noundef nonnull @.str.14, i32 noundef 62, ptr noundef nonnull @.str.21, ptr noundef %7) #4
  %.not13 = icmp eq i32 %8, 0
  br i1 %.not13, label %19, label %9

9:                                                ; preds = %6
  %10 = tail call ptr @PEM_read_bio_X509_ACERT(ptr noundef %7, ptr noundef null, ptr noundef null, ptr noundef null) #4
  %11 = tail call i32 @test_ptr(ptr noundef nonnull @.str.14, i32 noundef 65, ptr noundef nonnull @.str.24, ptr noundef %10) #4
  %.not14 = icmp eq i32 %11, 0
  br i1 %.not14, label %19, label %12

12:                                               ; preds = %9
  %13 = tail call ptr @EVP_sha256() #4
  %14 = tail call i32 @X509_ACERT_sign(ptr noundef %10, ptr noundef %4, ptr noundef %13) #4
  %15 = tail call i32 @test_int_gt(ptr noundef nonnull @.str.14, i32 noundef 68, ptr noundef nonnull @.str.30, ptr noundef nonnull @.str.31, i32 noundef %14, i32 noundef 0) #4
  %.not15 = icmp eq i32 %15, 0
  br i1 %.not15, label %19, label %16

16:                                               ; preds = %12
  %17 = tail call i32 @X509_ACERT_verify(ptr noundef %10, ptr noundef %4) #4
  %18 = tail call i32 @test_int_eq(ptr noundef nonnull @.str.14, i32 noundef 69, ptr noundef nonnull @.str.32, ptr noundef nonnull @.str.26, i32 noundef %17, i32 noundef 1) #4
  %.not16 = icmp ne i32 %18, 0
  %spec.select = zext i1 %.not16 to i32
  br label %19

19:                                               ; preds = %16, %12, %9, %6
  %.011 = phi i32 [ 0, %12 ], [ 0, %9 ], [ 0, %6 ], [ %spec.select, %16 ]
  %.0 = phi ptr [ %10, %12 ], [ %10, %9 ], [ null, %6 ], [ %10, %16 ]
  %20 = tail call i32 @BIO_free(ptr noundef %7) #4
  tail call void @X509_ACERT_free(ptr noundef %.0) #4
  tail call void @EVP_PKEY_free(ptr noundef %4) #4
  br label %21

21:                                               ; preds = %3, %0, %19
  %.010 = phi i32 [ %.011, %19 ], [ 0, %0 ], [ 0, %3 ]
  ret i32 %.010
}